;/////////////////////////////////////////////////////////////////////////////////
;// Code Generator: BoostC Compiler - http://www.sourceboost.com
;// Version       : 6.95
;// License Type  : Lite License (Unregistered)
;// Limitations   : PIC12,PIC16 max code size:2048 words, max RAM banks:2, Non commercial use only
;/////////////////////////////////////////////////////////////////////////////////

	ORG 0x00000000
0000  2A7E  	GOTO	_startup
	ORG 0x00000004
0004  00FF  	MOVWF Int1Context
0005  0E03  	SWAPF STATUS, W
0006  1283  	BCF STATUS, RP0
0007  1303  	BCF STATUS, RP1
0008  00C6  	MOVWF Int1BContext
0009  0E0A  	SWAPF PCLATH, W
000A  00C7  	MOVWF Int1BContext+D'1'
000B  0E04  	SWAPF FSR, W
000C  00C8  	MOVWF Int1BContext+D'2'
000D  118A  	BCF PCLATH,3
000E  120A  	BCF PCLATH,4
000F  2A85  	GOTO	interrupt
	ORG 0x00000010
0010        delay_ms_00000
0010        ; { delay_ms ; function begin
0010  08F1  	MOVF delay_ms_00000_arg_del, F
0011  1D03  	BTFSS STATUS,Z
0012  2814  	GOTO	label1
0013  0008  	RETURN
0014        label1
0014  30F9  	MOVLW 0xF9
0015        label2
0015  0000  	NOP
0016  0000  	NOP
0017  0000  	NOP
0018  0000  	NOP
0019  3EFF  	ADDLW 0xFF
001A  1D03  	BTFSS STATUS,Z
001B  2815  	GOTO	label2
001C  0000  	NOP
001D  0000  	NOP
001E  0000  	NOP
001F  0000  	NOP
0020  0000  	NOP
0021  0BF1  	DECFSZ delay_ms_00000_arg_del, F
0022  2814  	GOTO	label1
0023  0008  	RETURN
0024        ; } delay_ms function end

	ORG 0x00000024
0024        WriteCMD_00000
0024        ; { WriteCMD ; function begin
0024  01FD  	CLRF WriteCMD_00000_1_RESULT
0025  01FE  	CLRF WriteCMD_00000_1_RESULT+D'1'
0026  3010  	MOVLW 0x10
0027  1683  	BSF STATUS, RP0
0028  1303  	BCF STATUS, RP1
0029  00A0  	MOVWF WriteCMD_00000_1_n
002A  1283  	BCF STATUS, RP0
002B  1105  	BCF gbl_RFM12_SEL,2
002C        label3
002C  1683  	BSF STATUS, RP0
002D  0820  	MOVF WriteCMD_00000_1_n, W
002E  00A1  	MOVWF CompTempVar615
002F  03A0  	DECF WriteCMD_00000_1_n, F
0030  08A1  	MOVF CompTempVar615, F
0031  1903  	BTFSC STATUS,Z
0032  2845  	GOTO	label6
0033  1FFC  	BTFSS WriteCMD_00000_arg_CMD+D'1',7
0034  2838  	GOTO	label4
0035  1283  	BCF STATUS, RP0
0036  1486  	BSF gbl_SDO,1
0037  283A  	GOTO	label5
0038        label4
0038  1283  	BCF STATUS, RP0
0039  1086  	BCF gbl_SDO,1
003A        label5
003A  1585  	BSF gbl_SCK,3
003B  1003  	BCF STATUS,C
003C  0DFD  	RLF WriteCMD_00000_1_RESULT, F
003D  0DFE  	RLF WriteCMD_00000_1_RESULT+D'1', F
003E  1885  	BTFSC gbl_SDI,1
003F  147D  	BSF WriteCMD_00000_1_RESULT,0
0040  1003  	BCF STATUS,C
0041  0DFB  	RLF WriteCMD_00000_arg_CMD, F
0042  0DFC  	RLF WriteCMD_00000_arg_CMD+D'1', F
0043  1185  	BCF gbl_SCK,3
0044  282C  	GOTO	label3
0045        label6
0045  1283  	BCF STATUS, RP0
0046  1505  	BSF gbl_RFM12_SEL,2
0047  087D  	MOVF WriteCMD_00000_1_RESULT, W
0048  1683  	BSF STATUS, RP0
0049  00A2  	MOVWF CompTempVarRet614
004A  087E  	MOVF WriteCMD_00000_1_RESULT+D'1', W
004B  00A3  	MOVWF CompTempVarRet614+D'1'
004C  0008  	RETURN
004D        ; } WriteCMD function end

	ORG 0x0000004D
004D        rfm12_Basi_00028
004D        ; { rfm12_Basic_Config ; function begin
004D  30A0  	MOVLW 0xA0
004E  00FB  	MOVWF WriteCMD_00000_arg_CMD
004F  3095  	MOVLW 0x95
0050  00FC  	MOVWF WriteCMD_00000_arg_CMD+D'1'
0051  2024  	CALL WriteCMD_00000
0052  30AC  	MOVLW 0xAC
0053  00FB  	MOVWF WriteCMD_00000_arg_CMD
0054  30C2  	MOVLW 0xC2
0055  00FC  	MOVWF WriteCMD_00000_arg_CMD+D'1'
0056  2024  	CALL WriteCMD_00000
0057  01FB  	CLRF WriteCMD_00000_arg_CMD
0058  30E0  	MOVLW 0xE0
0059  00FC  	MOVWF WriteCMD_00000_arg_CMD+D'1'
005A  2024  	CALL WriteCMD_00000
005B  01FB  	CLRF WriteCMD_00000_arg_CMD
005C  30C8  	MOVLW 0xC8
005D  00FC  	MOVWF WriteCMD_00000_arg_CMD+D'1'
005E  2024  	CALL WriteCMD_00000
005F  304F  	MOVLW 0x4F
0060  00FB  	MOVWF WriteCMD_00000_arg_CMD
0061  30C4  	MOVLW 0xC4
0062  00FC  	MOVWF WriteCMD_00000_arg_CMD+D'1'
0063  2024  	CALL WriteCMD_00000
0064  3003  	MOVLW 0x03
0065  00FB  	MOVWF WriteCMD_00000_arg_CMD
0066  3098  	MOVLW 0x98
0067  00FC  	MOVWF WriteCMD_00000_arg_CMD+D'1'
0068  2024  	CALL WriteCMD_00000
0069  30E0  	MOVLW 0xE0
006A  00FB  	MOVWF WriteCMD_00000_arg_CMD
006B  30C0  	MOVLW 0xC0
006C  00FC  	MOVWF WriteCMD_00000_arg_CMD+D'1'
006D  2024  	CALL WriteCMD_00000
006E  0008  	RETURN
006F        ; } rfm12_Basic_Config function end

	ORG 0x0000006F
006F        goto_quiet_00029
006F        ; { goto_quiettime_state ; function begin
006F  3004  	MOVLW 0x04
0070  1283  	BCF STATUS, RP0
0071  1303  	BCF STATUS, RP1
0072  00A0  	MOVWF gbl_rfm12_conf
0073  3008  	MOVLW 0x08
0074  00FB  	MOVWF WriteCMD_00000_arg_CMD
0075  3082  	MOVLW 0x82
0076  00FC  	MOVWF WriteCMD_00000_arg_CMD+D'1'
0077  2024  	CALL WriteCMD_00000
0078  0008  	RETURN
0079        ; } goto_quiettime_state function end

	ORG 0x00000079
0079        __div_32_3_00001
0079        ; { __div_32_32 ; function begin
0079  1683  	BSF STATUS, RP0
007A  1303  	BCF STATUS, RP1
007B  01A0  	CLRF __div_32_3_00001_1_r
007C  01A1  	CLRF __div_32_3_00001_1_r+D'1'
007D  01A2  	CLRF __div_32_3_00001_1_r+D'2'
007E  01A3  	CLRF __div_32_3_00001_1_r+D'3'
007F  01A5  	CLRF CompTempVarRet163
0080  01A6  	CLRF CompTempVarRet163+D'1'
0081  01A7  	CLRF CompTempVarRet163+D'2'
0082  01A8  	CLRF CompTempVarRet163+D'3'
0083  01A4  	CLRF __div_32_3_00001_1_i
0084        label7
0084  1AA4  	BTFSC __div_32_3_00001_1_i,5
0085  0008  	RETURN
0086  1003  	BCF STATUS,C
0087  0DA5  	RLF CompTempVarRet163, F
0088  0DA6  	RLF CompTempVarRet163+D'1', F
0089  0DA7  	RLF CompTempVarRet163+D'2', F
008A  0DA8  	RLF CompTempVarRet163+D'3', F
008B  0DF3  	RLF __div_32_3_00001_arg_a, F
008C  0DF4  	RLF __div_32_3_00001_arg_a+D'1', F
008D  0DF5  	RLF __div_32_3_00001_arg_a+D'2', F
008E  0DF6  	RLF __div_32_3_00001_arg_a+D'3', F
008F  0DA0  	RLF __div_32_3_00001_1_r, F
0090  0DA1  	RLF __div_32_3_00001_1_r+D'1', F
0091  0DA2  	RLF __div_32_3_00001_1_r+D'2', F
0092  0DA3  	RLF __div_32_3_00001_1_r+D'3', F
0093  087A  	MOVF __div_32_3_00001_arg_b+D'3', W
0094  0223  	SUBWF __div_32_3_00001_1_r+D'3', W
0095  1D03  	BTFSS STATUS,Z
0096  28A1  	GOTO	label8
0097  0879  	MOVF __div_32_3_00001_arg_b+D'2', W
0098  0222  	SUBWF __div_32_3_00001_1_r+D'2', W
0099  1D03  	BTFSS STATUS,Z
009A  28A1  	GOTO	label8
009B  0878  	MOVF __div_32_3_00001_arg_b+D'1', W
009C  0221  	SUBWF __div_32_3_00001_1_r+D'1', W
009D  1D03  	BTFSS STATUS,Z
009E  28A1  	GOTO	label8
009F  0877  	MOVF __div_32_3_00001_arg_b, W
00A0  0220  	SUBWF __div_32_3_00001_1_r, W
00A1        label8
00A1  1C03  	BTFSS STATUS,C
00A2  28B2  	GOTO	label9
00A3  0877  	MOVF __div_32_3_00001_arg_b, W
00A4  02A0  	SUBWF __div_32_3_00001_1_r, F
00A5  0878  	MOVF __div_32_3_00001_arg_b+D'1', W
00A6  1C03  	BTFSS STATUS,C
00A7  0F78  	INCFSZ __div_32_3_00001_arg_b+D'1', W
00A8  02A1  	SUBWF __div_32_3_00001_1_r+D'1', F
00A9  0879  	MOVF __div_32_3_00001_arg_b+D'2', W
00AA  1C03  	BTFSS STATUS,C
00AB  0F79  	INCFSZ __div_32_3_00001_arg_b+D'2', W
00AC  02A2  	SUBWF __div_32_3_00001_1_r+D'2', F
00AD  087A  	MOVF __div_32_3_00001_arg_b+D'3', W
00AE  1C03  	BTFSS STATUS,C
00AF  0F7A  	INCFSZ __div_32_3_00001_arg_b+D'3', W
00B0  02A3  	SUBWF __div_32_3_00001_1_r+D'3', F
00B1  1425  	BSF CompTempVarRet163,0
00B2        label9
00B2  0AA4  	INCF __div_32_3_00001_1_i, F
00B3  2884  	GOTO	label7
00B4        ; } __div_32_32 function end

	ORG 0x000000B4
00B4        __div_16_1_00003
00B4        ; { __div_16_16 ; function begin
00B4  01FD  	CLRF __div_16_1_00003_1_r
00B5  01FE  	CLRF __div_16_1_00003_1_r+D'1'
00B6  1683  	BSF STATUS, RP0
00B7  1303  	BCF STATUS, RP1
00B8  01A1  	CLRF CompTempVarRet167
00B9  01A2  	CLRF CompTempVarRet167+D'1'
00BA  01A0  	CLRF __div_16_1_00003_1_i
00BB        label10
00BB  1A20  	BTFSC __div_16_1_00003_1_i,4
00BC  0008  	RETURN
00BD  1003  	BCF STATUS,C
00BE  0DA1  	RLF CompTempVarRet167, F
00BF  0DA2  	RLF CompTempVarRet167+D'1', F
00C0  0DF3  	RLF __div_16_1_00003_arg_a, F
00C1  0DF4  	RLF __div_16_1_00003_arg_a+D'1', F
00C2  0DFD  	RLF __div_16_1_00003_1_r, F
00C3  0DFE  	RLF __div_16_1_00003_1_r+D'1', F
00C4  0876  	MOVF __div_16_1_00003_arg_b+D'1', W
00C5  027E  	SUBWF __div_16_1_00003_1_r+D'1', W
00C6  1D03  	BTFSS STATUS,Z
00C7  28CA  	GOTO	label11
00C8  0875  	MOVF __div_16_1_00003_arg_b, W
00C9  027D  	SUBWF __div_16_1_00003_1_r, W
00CA        label11
00CA  1C03  	BTFSS STATUS,C
00CB  28D3  	GOTO	label12
00CC  0875  	MOVF __div_16_1_00003_arg_b, W
00CD  02FD  	SUBWF __div_16_1_00003_1_r, F
00CE  0876  	MOVF __div_16_1_00003_arg_b+D'1', W
00CF  1C03  	BTFSS STATUS,C
00D0  03FE  	DECF __div_16_1_00003_1_r+D'1', F
00D1  02FE  	SUBWF __div_16_1_00003_1_r+D'1', F
00D2  1421  	BSF CompTempVarRet167,0
00D3        label12
00D3  0AA0  	INCF __div_16_1_00003_1_i, F
00D4  28BB  	GOTO	label10
00D5        ; } __div_16_16 function end

	ORG 0x000000D5
00D5        Init_00000
00D5        ; { Init ; function begin
00D5  1683  	BSF STATUS, RP0
00D6  1303  	BCF STATUS, RP1
00D7  1105  	BCF gbl_RFM12_SEL_TRIS,2
00D8  1283  	BCF STATUS, RP0
00D9  1505  	BSF gbl_RFM12_SEL,2
00DA  1683  	BSF STATUS, RP0
00DB  1185  	BCF gbl_SCK_TRIS,3
00DC  1283  	BCF STATUS, RP0
00DD  1185  	BCF gbl_SCK,3
00DE  1683  	BSF STATUS, RP0
00DF  1086  	BCF gbl_SDO_TRIS,1
00E0  1283  	BCF STATUS, RP0
00E1  1086  	BCF gbl_SDO,1
00E2  1683  	BSF STATUS, RP0
00E3  1406  	BSF gbl_RFM12_IRQ_TRIS,0
00E4  1485  	BSF gbl_SDI_TRIS,1
00E5  1283  	BCF STATUS, RP0
00E6  01C2  	CLRF gbl_rfm12_conf+D'34'
00E7  30C8  	MOVLW 0xC8
00E8  00F1  	MOVWF delay_ms_00000_arg_del
00E9  2010  	CALL delay_ms_00000
00EA  0008  	RETURN
00EB        ; } Init function end

	ORG 0x000000EB
00EB        rfm12_Wait_0001C
00EB        ; { rfm12_WaitReady ; function begin
00EB  1072  	BCF rfm12_Wait_0001C_1_READY,0
00EC        label13
00EC  1872  	BTFSC rfm12_Wait_0001C_1_READY,0
00ED  0008  	RETURN
00EE  1283  	BCF STATUS, RP0
00EF  1303  	BCF STATUS, RP1
00F0  1105  	BCF gbl_RFM12_SEL,2
00F1  1086  	BCF gbl_SDO,1
00F2  1585  	BSF gbl_SCK,3
00F3  1885  	BTFSC gbl_SDI,1
00F4  1472  	BSF rfm12_Wait_0001C_1_READY,0
00F5  1185  	BCF gbl_SCK,3
00F6  1505  	BSF gbl_RFM12_SEL,2
00F7  28EC  	GOTO	label13
00F8        ; } rfm12_WaitReady function end

	ORG 0x000000F8
00F8        rfm12_SetF_00015
00F8        ; { rfm12_SetFreq ; function begin
00F8  3060  	MOVLW 0x60
00F9  0271  	SUBWF rfm12_SetF_00015_arg_freq, W
00FA  0872  	MOVF rfm12_SetF_00015_arg_freq+D'1', W
00FB  1803  	BTFSC STATUS,C
00FC  2903  	GOTO	label14
00FD  1D03  	BTFSS STATUS,Z
00FE  2903  	GOTO	label14
00FF  3060  	MOVLW 0x60
0100  00F1  	MOVWF rfm12_SetF_00015_arg_freq
0101  01F2  	CLRF rfm12_SetF_00015_arg_freq+D'1'
0102  290F  	GOTO	label16
0103        label14
0103  0872  	MOVF rfm12_SetF_00015_arg_freq+D'1', W
0104  3C0F  	SUBLW 0x0F
0105  1D03  	BTFSS STATUS,Z
0106  2909  	GOTO	label15
0107  0871  	MOVF rfm12_SetF_00015_arg_freq, W
0108  3C3F  	SUBLW 0x3F
0109        label15
0109  1803  	BTFSC STATUS,C
010A  290F  	GOTO	label16
010B  303F  	MOVLW 0x3F
010C  00F1  	MOVWF rfm12_SetF_00015_arg_freq
010D  300F  	MOVLW 0x0F
010E  00F2  	MOVWF rfm12_SetF_00015_arg_freq+D'1'
010F        label16
010F  0871  	MOVF rfm12_SetF_00015_arg_freq, W
0110  3800  	IORLW 0x00
0111  00FB  	MOVWF WriteCMD_00000_arg_CMD
0112  0872  	MOVF rfm12_SetF_00015_arg_freq+D'1', W
0113  38A0  	IORLW 0xA0
0114  00FC  	MOVWF WriteCMD_00000_arg_CMD+D'1'
0115  2024  	CALL WriteCMD_00000
0116  0008  	RETURN
0117        ; } rfm12_SetFreq function end

	ORG 0x00000117
0117        rfm12_SetB_00013
0117        ; { rfm12_SetBaud ; function begin
0117  3002  	MOVLW 0x02
0118  0272  	SUBWF rfm12_SetB_00013_arg_baud+D'1', W
0119  1D03  	BTFSS STATUS,Z
011A  291D  	GOTO	label17
011B  3098  	MOVLW 0x98
011C  0271  	SUBWF rfm12_SetB_00013_arg_baud, W
011D        label17
011D  1803  	BTFSC STATUS,C
011E  2923  	GOTO	label18
011F  3098  	MOVLW 0x98
0120  00F1  	MOVWF rfm12_SetB_00013_arg_baud
0121  3002  	MOVLW 0x02
0122  00F2  	MOVWF rfm12_SetB_00013_arg_baud+D'1'
0123        label18
0123  3015  	MOVLW 0x15
0124  0272  	SUBWF rfm12_SetB_00013_arg_baud+D'1', W
0125  1D03  	BTFSS STATUS,Z
0126  2929  	GOTO	label19
0127  3018  	MOVLW 0x18
0128  0271  	SUBWF rfm12_SetB_00013_arg_baud, W
0129        label19
0129  1803  	BTFSC STATUS,C
012A  2940  	GOTO	label20
012B  3060  	MOVLW 0x60
012C  00F3  	MOVWF __div_16_1_00003_arg_a
012D  30A8  	MOVLW 0xA8
012E  00F4  	MOVWF __div_16_1_00003_arg_a+D'1'
012F  0871  	MOVF rfm12_SetB_00013_arg_baud, W
0130  00F5  	MOVWF __div_16_1_00003_arg_b
0131  0872  	MOVF rfm12_SetB_00013_arg_baud+D'1', W
0132  00F6  	MOVWF __div_16_1_00003_arg_b+D'1'
0133  20B4  	CALL __div_16_1_00003
0134  0821  	MOVF CompTempVarRet167, W
0135  00F9  	MOVWF CompTempVar618
0136  0822  	MOVF CompTempVarRet167+D'1', W
0137  00FA  	MOVWF CompTempVar619
0138  0879  	MOVF CompTempVar618, W
0139  3880  	IORLW 0x80
013A  00FB  	MOVWF WriteCMD_00000_arg_CMD
013B  087A  	MOVF CompTempVar619, W
013C  38C6  	IORLW 0xC6
013D  00FC  	MOVWF WriteCMD_00000_arg_CMD+D'1'
013E  2024  	CALL WriteCMD_00000
013F  0008  	RETURN
0140        label20
0140  30FC  	MOVLW 0xFC
0141  00F3  	MOVWF __div_32_3_00001_arg_a
0142  3042  	MOVLW 0x42
0143  00F4  	MOVWF __div_32_3_00001_arg_a+D'1'
0144  3005  	MOVLW 0x05
0145  00F5  	MOVWF __div_32_3_00001_arg_a+D'2'
0146  3000  	MOVLW 0x00
0147  00F6  	MOVWF __div_32_3_00001_arg_a+D'3'
0148  0871  	MOVF rfm12_SetB_00013_arg_baud, W
0149  00F7  	MOVWF __div_32_3_00001_arg_b
014A  0872  	MOVF rfm12_SetB_00013_arg_baud+D'1', W
014B  00F8  	MOVWF __div_32_3_00001_arg_b+D'1'
014C  01F9  	CLRF __div_32_3_00001_arg_b+D'2'
014D  01FA  	CLRF __div_32_3_00001_arg_b+D'3'
014E  2079  	CALL __div_32_3_00001
014F  0825  	MOVF CompTempVarRet163, W
0150  00FD  	MOVWF CompTempVar626
0151  0826  	MOVF CompTempVarRet163+D'1', W
0152  00FE  	MOVWF CompTempVar627
0153  087D  	MOVF CompTempVar626, W
0154  3800  	IORLW 0x00
0155  00FB  	MOVWF WriteCMD_00000_arg_CMD
0156  087E  	MOVF CompTempVar627, W
0157  38C6  	IORLW 0xC6
0158  00FC  	MOVWF WriteCMD_00000_arg_CMD+D'1'
0159  2024  	CALL WriteCMD_00000
015A  0008  	RETURN
015B        ; } rfm12_SetBaud function end

	ORG 0x0000015B
015B        rfm12_Init_00012
015B        ; { rfm12_Init_915 ; function begin
015B  20D5  	CALL Init_00000
015C  30F7  	MOVLW 0xF7
015D  00FB  	MOVWF WriteCMD_00000_arg_CMD
015E  3080  	MOVLW 0x80
015F  00FC  	MOVWF WriteCMD_00000_arg_CMD+D'1'
0160  2024  	CALL WriteCMD_00000
0161  204D  	CALL rfm12_Basi_00028
0162  206F  	CALL goto_quiet_00029
0163  0008  	RETURN
0164        ; } rfm12_Init_915 function end

	ORG 0x00000164
0164        goto_trans_0002A
0164        ; { goto_transmitting_state ; function begin
0164  3002  	MOVLW 0x02
0165  1283  	BCF STATUS, RP0
0166  1303  	BCF STATUS, RP1
0167  00A0  	MOVWF gbl_rfm12_conf
0168  3020  	MOVLW 0x20
0169  00FB  	MOVWF WriteCMD_00000_arg_CMD
016A  3082  	MOVLW 0x82
016B  00FC  	MOVWF WriteCMD_00000_arg_CMD+D'1'
016C  2024  	CALL WriteCMD_00000
016D  0008  	RETURN
016E        ; } goto_transmitting_state function end

	ORG 0x0000016E
016E        goto_recei_0002B
016E        ; { goto_receiving_state ; function begin
016E  3003  	MOVLW 0x03
016F  1283  	BCF STATUS, RP0
0170  1303  	BCF STATUS, RP1
0171  00A0  	MOVWF gbl_rfm12_conf
0172  3080  	MOVLW 0x80
0173  00FB  	MOVWF WriteCMD_00000_arg_CMD
0174  3082  	MOVLW 0x82
0175  00FC  	MOVWF WriteCMD_00000_arg_CMD+D'1'
0176  2024  	CALL WriteCMD_00000
0177  0008  	RETURN
0178        ; } goto_receiving_state function end

	ORG 0x00000178
0178        rfm12_Tx_B_00020
0178        ; { rfm12_Tx_Byte ; function begin
0178  20EB  	CALL rfm12_Wait_0001C
0179  0871  	MOVF rfm12_Tx_B_00020_arg_data, W
017A  3800  	IORLW 0x00
017B  00FB  	MOVWF WriteCMD_00000_arg_CMD
017C  30B8  	MOVLW 0xB8
017D  00FC  	MOVWF WriteCMD_00000_arg_CMD+D'1'
017E  2024  	CALL WriteCMD_00000
017F  0008  	RETURN
0180        ; } rfm12_Tx_Byte function end

	ORG 0x00000180
0180        rfm12_Rese_00023
0180        ; { rfm12_ResetFifo ; function begin
0180  3001  	MOVLW 0x01
0181  00FB  	MOVWF WriteCMD_00000_arg_CMD
0182  30CA  	MOVLW 0xCA
0183  00FC  	MOVWF WriteCMD_00000_arg_CMD+D'1'
0184  2024  	CALL WriteCMD_00000
0185  3083  	MOVLW 0x83
0186  00FB  	MOVWF WriteCMD_00000_arg_CMD
0187  30CA  	MOVLW 0xCA
0188  00FC  	MOVWF WriteCMD_00000_arg_CMD+D'1'
0189  2024  	CALL WriteCMD_00000
018A  0008  	RETURN
018B        ; } rfm12_ResetFifo function end

	ORG 0x0000018B
018B        rfm12_Read_00024
018B        ; { rfm12_ReadFifo ; function begin
018B  20EB  	CALL rfm12_Wait_0001C
018C  01FB  	CLRF WriteCMD_00000_arg_CMD
018D  30B0  	MOVLW 0xB0
018E  00FC  	MOVWF WriteCMD_00000_arg_CMD+D'1'
018F  2024  	CALL WriteCMD_00000
0190  0822  	MOVF CompTempVarRet614, W
0191  00F1  	MOVWF CompTempVarRet656
0192  0008  	RETURN
0193        ; } rfm12_ReadFifo function end

	ORG 0x00000193
0193        rfm12_Enab_00018
0193        ; { rfm12_EnableRx ; function begin
0193  216E  	CALL goto_recei_0002B
0194  0008  	RETURN
0195        ; } rfm12_EnableRx function end

	ORG 0x00000195
0195        rfm12_Enab_00017
0195        ; { rfm12_EnableTx ; function begin
0195  2164  	CALL goto_trans_0002A
0196  0008  	RETURN
0197        ; } rfm12_EnableTx function end

	ORG 0x00000197
0197        rfm12_Disa_0001A
0197        ; { rfm12_DisableRx ; function begin
0197  206F  	CALL goto_quiet_00029
0198  0008  	RETURN
0199        ; } rfm12_DisableRx function end

	ORG 0x00000199
0199        rfm12_Disa_00019
0199        ; { rfm12_DisableTx ; function begin
0199  206F  	CALL goto_quiet_00029
019A  0008  	RETURN
019B        ; } rfm12_DisableTx function end

	ORG 0x0000019B
019B        init_00000
019B        ; { init ; function begin
019B  3007  	MOVLW 0x07
019C  1283  	BCF STATUS, RP0
019D  1303  	BCF STATUS, RP1
019E  009F  	MOVWF gbl_cmcon
019F  1683  	BSF STATUS, RP0
01A0  1005  	BCF gbl_LED1_TRIS,0
01A1  1283  	BCF STATUS, RP0
01A2  1005  	BCF gbl_LED1,0
01A3  1683  	BSF STATUS, RP0
01A4  1381  	BCF gbl_option_reg,7
01A5  1301  	BCF gbl_option_reg,6
01A6  160B  	BSF gbl_intcon,4
01A7  178B  	BSF gbl_intcon,7
01A8  215B  	CALL rfm12_Init_00012
01A9  3080  	MOVLW 0x80
01AA  00F1  	MOVWF rfm12_SetB_00013_arg_baud
01AB  3025  	MOVLW 0x25
01AC  00F2  	MOVWF rfm12_SetB_00013_arg_baud+D'1'
01AD  2117  	CALL rfm12_SetB_00013
01AE  30D0  	MOVLW 0xD0
01AF  00F1  	MOVWF rfm12_SetF_00015_arg_freq
01B0  3007  	MOVLW 0x07
01B1  00F2  	MOVWF rfm12_SetF_00015_arg_freq+D'1'
01B2  20F8  	CALL rfm12_SetF_00015
01B3  0008  	RETURN
01B4        ; } init function end

	ORG 0x000001B4
01B4        main
01B4        ; { main ; function begin
01B4  1283  	BCF STATUS, RP0
01B5  1303  	BCF STATUS, RP1
01B6  01EC  	CLRF main_1_i
01B7  01ED  	CLRF main_1_j
01B8  01EE  	CLRF main_1_chksum
01B9  01EF  	CLRF main_1_temp
01BA  3031  	MOVLW 0x31
01BB  00F0  	MOVWF main_1_datavari
01BC  30B8  	MOVLW 0xB8
01BD  00F1  	MOVWF delay_ms_00000_arg_del
01BE  2010  	CALL delay_ms_00000
01BF  219B  	CALL init_00000
01C0  30E0  	MOVLW 0xE0
01C1  00FB  	MOVWF WriteCMD_00000_arg_CMD
01C2  30C0  	MOVLW 0xC0
01C3  00FC  	MOVWF WriteCMD_00000_arg_CMD+D'1'
01C4  2024  	CALL WriteCMD_00000
01C5  1283  	BCF STATUS, RP0
01C6  1E06  	BTFSS gbl_TRIG_IN,4
01C7  29CA  	GOTO	label21
01C8  01C9  	CLRF gbl_mode
01C9  29CC  	GOTO	label22
01CA        label21
01CA  3001  	MOVLW 0x01
01CB  00C9  	MOVWF gbl_mode
01CC        label22
01CC  0849  	MOVF gbl_mode, W
01CD  3A00  	XORLW 0x00
01CE  1903  	BTFSC STATUS,Z
01CF  29D4  	GOTO	label23
01D0  3A01  	XORLW 0x01
01D1  1903  	BTFSC STATUS,Z
01D2  29E5  	GOTO	label24
01D3  29EA  	GOTO	label25
01D4        label23
01D4  2180  	CALL rfm12_Rese_00023
01D5  2193  	CALL rfm12_Enab_00018
01D6  1283  	BCF STATUS, RP0
01D7  1405  	BSF gbl_LED1,0
01D8  30FA  	MOVLW 0xFA
01D9  00F1  	MOVWF delay_ms_00000_arg_del
01DA  2010  	CALL delay_ms_00000
01DB  1005  	BCF gbl_LED1,0
01DC  30FA  	MOVLW 0xFA
01DD  00F1  	MOVWF delay_ms_00000_arg_del
01DE  2010  	CALL delay_ms_00000
01DF  1405  	BSF gbl_LED1,0
01E0  30FA  	MOVLW 0xFA
01E1  00F1  	MOVWF delay_ms_00000_arg_del
01E2  2010  	CALL delay_ms_00000
01E3  1005  	BCF gbl_LED1,0
01E4  29EA  	GOTO	label25
01E5        label24
01E5  1405  	BSF gbl_LED1,0
01E6  30F4  	MOVLW 0xF4
01E7  00F1  	MOVWF delay_ms_00000_arg_del
01E8  2010  	CALL delay_ms_00000
01E9  1005  	BCF gbl_LED1,0
01EA        label25
01EA  1283  	BCF STATUS, RP0
01EB  0849  	MOVF gbl_mode, W
01EC  3A00  	XORLW 0x00
01ED  1903  	BTFSC STATUS,Z
01EE  29F3  	GOTO	label26
01EF  3A01  	XORLW 0x01
01F0  1903  	BTFSC STATUS,Z
01F1  2A37  	GOTO	label32
01F2  29EA  	GOTO	label25
01F3        label26
01F3  218B  	CALL rfm12_Read_00024
01F4  0871  	MOVF CompTempVarRet656, W
01F5  1283  	BCF STATUS, RP0
01F6  00EF  	MOVWF main_1_temp
01F7  086F  	MOVF main_1_temp, W
01F8  3A30  	XORLW 0x30
01F9  1D03  	BTFSS STATUS,Z
01FA  29FD  	GOTO	label27
01FB  01EC  	CLRF main_1_i
01FC  2A09  	GOTO	label28
01FD        label27
01FD  3004  	MOVLW 0x04
01FE  026C  	SUBWF main_1_i, W
01FF  1803  	BTFSC STATUS,C
0200  2A09  	GOTO	label28
0201  1383  	BCF	STATUS,IRP
0202  304C  	MOVLW LOW(main_1_buffer+D'0')
0203  0084  	MOVWF FSR
0204  086C  	MOVF main_1_i, W
0205  0AEC  	INCF main_1_i, F
0206  0784  	ADDWF FSR, F
0207  086F  	MOVF main_1_temp, W
0208  0080  	MOVWF INDF
0209        label28
0209  086C  	MOVF main_1_i, W
020A  3A04  	XORLW 0x04
020B  1D03  	BTFSS STATUS,Z
020C  29F3  	GOTO	label26
020D  01EC  	CLRF main_1_i
020E  2197  	CALL rfm12_Disa_0001A
020F  3001  	MOVLW 0x01
0210  00FB  	MOVWF WriteCMD_00000_arg_CMD
0211  30CA  	MOVLW 0xCA
0212  00FC  	MOVWF WriteCMD_00000_arg_CMD+D'1'
0213  2024  	CALL WriteCMD_00000
0214  1283  	BCF STATUS, RP0
0215  01EE  	CLRF main_1_chksum
0216  01ED  	CLRF main_1_j
0217        label29
0217  3003  	MOVLW 0x03
0218  026D  	SUBWF main_1_j, W
0219  1803  	BTFSC STATUS,C
021A  2A24  	GOTO	label30
021B  1383  	BCF	STATUS,IRP
021C  304C  	MOVLW LOW(main_1_buffer+D'0')
021D  0084  	MOVWF FSR
021E  086D  	MOVF main_1_j, W
021F  0784  	ADDWF FSR, F
0220  0800  	MOVF INDF, W
0221  07EE  	ADDWF main_1_chksum, F
0222  0AED  	INCF main_1_j, F
0223  2A17  	GOTO	label29
0224        label30
0224  084F  	MOVF main_1_buffer+D'3', W
0225  066E  	XORWF main_1_chksum, W
0226  1D03  	BTFSS STATUS,Z
0227  2A30  	GOTO	label31
0228  3005  	MOVLW 0x05
0229  00F1  	MOVWF delay_ms_00000_arg_del
022A  2010  	CALL delay_ms_00000
022B  1405  	BSF gbl_LED1,0
022C  3005  	MOVLW 0x05
022D  00F1  	MOVWF delay_ms_00000_arg_del
022E  2010  	CALL delay_ms_00000
022F  1005  	BCF gbl_LED1,0
0230        label31
0230  3083  	MOVLW 0x83
0231  00FB  	MOVWF WriteCMD_00000_arg_CMD
0232  30CA  	MOVLW 0xCA
0233  00FC  	MOVWF WriteCMD_00000_arg_CMD+D'1'
0234  2024  	CALL WriteCMD_00000
0235  2193  	CALL rfm12_Enab_00018
0236  29F3  	GOTO	label26
0237        label32
0237  1405  	BSF gbl_LED1,0
0238  1405  	BSF gbl_LED1,0
0239  3003  	MOVLW 0x03
023A  00F1  	MOVWF delay_ms_00000_arg_del
023B  2010  	CALL delay_ms_00000
023C  1005  	BCF gbl_LED1,0
023D  3003  	MOVLW 0x03
023E  00F1  	MOVWF delay_ms_00000_arg_del
023F  2010  	CALL delay_ms_00000
0240  01EE  	CLRF main_1_chksum
0241  01F1  	CLRF CompTempVar613
0242  1C05  	BTFSS gbl_LED1,0
0243  0AF1  	INCF CompTempVar613, F
0244  1871  	BTFSC CompTempVar613,0
0245  1405  	BSF gbl_LED1,0
0246  1C71  	BTFSS CompTempVar613,0
0247  1005  	BCF gbl_LED1,0
0248  2195  	CALL rfm12_Enab_00017
0249  30AA  	MOVLW 0xAA
024A  00F1  	MOVWF rfm12_Tx_B_00020_arg_data
024B  2178  	CALL rfm12_Tx_B_00020
024C  30AA  	MOVLW 0xAA
024D  00F1  	MOVWF rfm12_Tx_B_00020_arg_data
024E  2178  	CALL rfm12_Tx_B_00020
024F  30AA  	MOVLW 0xAA
0250  00F1  	MOVWF rfm12_Tx_B_00020_arg_data
0251  2178  	CALL rfm12_Tx_B_00020
0252  30AA  	MOVLW 0xAA
0253  00F1  	MOVWF rfm12_Tx_B_00020_arg_data
0254  2178  	CALL rfm12_Tx_B_00020
0255  302D  	MOVLW 0x2D
0256  00F1  	MOVWF rfm12_Tx_B_00020_arg_data
0257  2178  	CALL rfm12_Tx_B_00020
0258  30D4  	MOVLW 0xD4
0259  00F1  	MOVWF rfm12_Tx_B_00020_arg_data
025A  2178  	CALL rfm12_Tx_B_00020
025B  3030  	MOVLW 0x30
025C  00F1  	MOVWF rfm12_Tx_B_00020_arg_data
025D  2178  	CALL rfm12_Tx_B_00020
025E  3031  	MOVLW 0x31
025F  00F1  	MOVWF rfm12_Tx_B_00020_arg_data
0260  2178  	CALL rfm12_Tx_B_00020
0261  3031  	MOVLW 0x31
0262  1283  	BCF STATUS, RP0
0263  07EE  	ADDWF main_1_chksum, F
0264  3032  	MOVLW 0x32
0265  00F1  	MOVWF rfm12_Tx_B_00020_arg_data
0266  2178  	CALL rfm12_Tx_B_00020
0267  3032  	MOVLW 0x32
0268  1283  	BCF STATUS, RP0
0269  07EE  	ADDWF main_1_chksum, F
026A  3033  	MOVLW 0x33
026B  00F1  	MOVWF rfm12_Tx_B_00020_arg_data
026C  2178  	CALL rfm12_Tx_B_00020
026D  3033  	MOVLW 0x33
026E  1283  	BCF STATUS, RP0
026F  07EE  	ADDWF main_1_chksum, F
0270  086E  	MOVF main_1_chksum, W
0271  00F1  	MOVWF rfm12_Tx_B_00020_arg_data
0272  2178  	CALL rfm12_Tx_B_00020
0273  303F  	MOVLW 0x3F
0274  00F1  	MOVWF rfm12_Tx_B_00020_arg_data
0275  2178  	CALL rfm12_Tx_B_00020
0276  30AA  	MOVLW 0xAA
0277  00F1  	MOVWF rfm12_Tx_B_00020_arg_data
0278  2178  	CALL rfm12_Tx_B_00020
0279  30AA  	MOVLW 0xAA
027A  00F1  	MOVWF rfm12_Tx_B_00020_arg_data
027B  2178  	CALL rfm12_Tx_B_00020
027C  2199  	CALL rfm12_Disa_00019
027D  29EA  	GOTO	label25
027E        ; } main function end

	ORG 0x0000027E
027E        _startup
027E  1283  	BCF STATUS, RP0
027F  1303  	BCF STATUS, RP1
0280  01C9  	CLRF gbl_mode
0281  01CA  	CLRF gbl_rx_state
0282  118A  	BCF PCLATH,3
0283  120A  	BCF PCLATH,4
0284  29B4  	GOTO	main
	ORG 0x00000285
0285        interrupt
0285        ; { interrupt ; function begin
0285  1C8B  	BTFSS gbl_intcon,1
0286  2A8C  	GOTO	label34
0287  3001  	MOVLW 0x01
0288  1283  	BCF STATUS, RP0
0289  1303  	BCF STATUS, RP1
028A  00CB  	MOVWF gbl_flag
028B  108B  	BCF gbl_intcon,1
028C        label34
028C  1283  	BCF STATUS, RP0
028D  1303  	BCF STATUS, RP1
028E  0E48  	SWAPF Int1BContext+D'2', W
028F  0084  	MOVWF FSR
0290  0E47  	SWAPF Int1BContext+D'1', W
0291  008A  	MOVWF PCLATH
0292  0E46  	SWAPF Int1BContext, W
0293  0083  	MOVWF STATUS
0294  0EFF  	SWAPF Int1Context, F
0295  0E7F  	SWAPF Int1Context, W
0296  0009  	RETFIE
0297        ; } interrupt function end

	ORG 0x00002007
2007  3F10  	DW 0x3F10
